target datalayout = "e-m:e-p270:32:32-p271:32:32-p272:64:64-i64:64-i128:128-f80:128-n8:16:32:64-S128"
target triple = "x86_64-pc-linux-gnu"

%struct._zend_phpdbg_globals = type { [11 x %struct._zend_array], %struct._zend_array, %struct._zend_array, ptr, ptr, %struct.phpdbg_frame_t, i32, ptr, %struct.phpdbg_lexer_data, ptr, %struct.sigaction, i32, i64, %struct.phpdbg_btree, %struct.phpdbg_btree, %struct._zend_array, %struct._zend_array, %struct._zend_array, %struct._zend_array, ptr, ptr, i8, ptr, ptr, ptr, i64, ptr, %struct._zval_struct, i32, i32, i8, i8, ptr, ptr, ptr, %struct._zend_array, ptr, ptr, ptr, [3 x %struct.anon.8], ptr, %struct.anon.9, i64, [2 x ptr], [3 x ptr], ptr, i8, ptr, ptr, [500 x i8], i32, %struct.phpdbg_signal_safe_mem, ptr, i64, ptr, i64 }
%struct.phpdbg_frame_t = type { i32, ptr, ptr }
%struct.phpdbg_lexer_data = type { i32, ptr, ptr, ptr, ptr, i32 }
%struct.sigaction = type { %union.anon.2, %struct.__sigset_t, i32, ptr }
%union.anon.2 = type { ptr }
%struct.__sigset_t = type { [16 x i64] }
%struct.phpdbg_btree = type { i64, i64, i8, ptr }
%struct._zval_struct = type { %union._zend_value, %union.anon.4, %union.anon.7 }
%union._zend_value = type { i64 }
%union.anon.4 = type { i32 }
%union.anon.7 = type { i32 }
%struct._zend_array = type { %struct._zend_refcounted_h, %union.anon.0, i32, %union.anon.1, i32, i32, i32, i32, i64, ptr }
%struct._zend_refcounted_h = type { i32, %union.anon }
%union.anon = type { i32 }
%union.anon.0 = type { i32 }
%union.anon.1 = type { ptr }
%struct.anon.8 = type { i32 }
%struct.anon.9 = type { i8, i32, i32, ptr, i32 }
%struct.phpdbg_signal_safe_mem = type { ptr, i8, ptr, ptr }
%struct._phpdbg_breakbase_t = type { i32, i8, i64, i8, ptr }

@phpdbg_globals = external global %struct._zend_phpdbg_globals, align 8

; Function Attrs: nounwind uwtable
define void @phpdbg_reset_breakpoints() #0 {
  %1 = alloca ptr, align 8
  %2 = alloca ptr, align 8
  %3 = alloca ptr, align 8
  %4 = alloca ptr, align 8
  %5 = alloca i32, align 4
  %6 = alloca i64, align 8
  %7 = alloca ptr, align 8
  %8 = alloca ptr, align 8
  %9 = alloca ptr, align 8
  %10 = alloca i32, align 4
  %11 = alloca i64, align 8
  %12 = alloca ptr, align 8
  br label %13

13:                                               ; preds = %0
  store ptr getelementptr inbounds ([11 x %struct._zend_array], ptr @phpdbg_globals, i64 0, i64 10), ptr %4, align 8
  %14 = load ptr, ptr %4, align 8
  %15 = getelementptr inbounds %struct._zend_array, ptr %14, i32 0, i32 4
  %16 = load i32, ptr %15, align 8
  store i32 %16, ptr %5, align 4
  %17 = load ptr, ptr %4, align 8
  %18 = getelementptr inbounds %struct._zend_array, ptr %17, i32 0, i32 1
  %19 = load i32, ptr %18, align 8
  %20 = xor i32 %19, -1
  %21 = and i32 %20, 4
  %22 = zext i32 %21 to i64
  %23 = mul i64 %22, 4
  %24 = add i64 16, %23
  store i64 %24, ptr %6, align 8
  %25 = load ptr, ptr %4, align 8
  %26 = getelementptr inbounds %struct._zend_array, ptr %25, i32 0, i32 3
  %27 = load ptr, ptr %26, align 8
  store ptr %27, ptr %7, align 8
  br label %28

28:                                               ; preds = %94, %13
  %29 = load i32, ptr %5, align 4
  %30 = icmp ugt i32 %29, 0
  br i1 %30, label %31, label %100

31:                                               ; preds = %28
  %32 = load ptr, ptr %7, align 8
  store ptr %32, ptr %1, align 8
  %33 = load ptr, ptr %1, align 8
  %34 = getelementptr inbounds %struct._zval_struct, ptr %33, i32 0, i32 1
  %35 = load i8, ptr %34, align 8
  %36 = zext i8 %35 to i32
  %37 = icmp eq i32 %36, 0
  %38 = xor i1 %37, true
  %39 = xor i1 %38, true
  %40 = zext i1 %39 to i32
  %41 = sext i32 %40 to i64
  %42 = icmp ne i64 %41, 0
  br i1 %42, label %43, label %44

43:                                               ; preds = %31
  br label %94

44:                                               ; preds = %31
  %45 = load ptr, ptr %7, align 8
  %46 = getelementptr inbounds %struct._zval_struct, ptr %45, i32 0, i32 0
  %47 = load ptr, ptr %46, align 8
  store ptr %47, ptr %3, align 8
  br label %48

48:                                               ; preds = %44
  %49 = load ptr, ptr %3, align 8
  store ptr %49, ptr %9, align 8
  %50 = load ptr, ptr %9, align 8
  %51 = getelementptr inbounds %struct._zend_array, ptr %50, i32 0, i32 4
  %52 = load i32, ptr %51, align 8
  store i32 %52, ptr %10, align 4
  %53 = load ptr, ptr %9, align 8
  %54 = getelementptr inbounds %struct._zend_array, ptr %53, i32 0, i32 1
  %55 = load i32, ptr %54, align 8
  %56 = xor i32 %55, -1
  %57 = and i32 %56, 4
  %58 = zext i32 %57 to i64
  %59 = mul i64 %58, 4
  %60 = add i64 16, %59
  store i64 %60, ptr %11, align 8
  %61 = load ptr, ptr %9, align 8
  %62 = getelementptr inbounds %struct._zend_array, ptr %61, i32 0, i32 3
  %63 = load ptr, ptr %62, align 8
  store ptr %63, ptr %12, align 8
  br label %64

64:                                               ; preds = %86, %48
  %65 = load i32, ptr %10, align 4
  %66 = icmp ugt i32 %65, 0
  br i1 %66, label %67, label %92

67:                                               ; preds = %64
  %68 = load ptr, ptr %12, align 8
  store ptr %68, ptr %2, align 8
  %69 = load ptr, ptr %2, align 8
  %70 = getelementptr inbounds %struct._zval_struct, ptr %69, i32 0, i32 1
  %71 = load i8, ptr %70, align 8
  %72 = zext i8 %71 to i32
  %73 = icmp eq i32 %72, 0
  %74 = xor i1 %73, true
  %75 = xor i1 %74, true
  %76 = zext i1 %75 to i32
  %77 = sext i32 %76 to i64
  %78 = icmp ne i64 %77, 0
  br i1 %78, label %79, label %80

79:                                               ; preds = %67
  br label %86

80:                                               ; preds = %67
  %81 = load ptr, ptr %12, align 8
  %82 = getelementptr inbounds %struct._zval_struct, ptr %81, i32 0, i32 0
  %83 = load ptr, ptr %82, align 8
  store ptr %83, ptr %8, align 8
  %84 = load ptr, ptr %8, align 8
  %85 = getelementptr inbounds %struct._phpdbg_breakbase_t, ptr %84, i32 0, i32 2
  store i64 0, ptr %85, align 8
  br label %86

86:                                               ; preds = %80, %79
  %87 = load ptr, ptr %12, align 8
  %88 = load i64, ptr %11, align 8
  %89 = getelementptr inbounds i8, ptr %87, i64 %88
  store ptr %89, ptr %12, align 8
  %90 = load i32, ptr %10, align 4
  %91 = add i32 %90, -1
  store i32 %91, ptr %10, align 4
  br label %64

92:                                               ; preds = %64
  br label %93

93:                                               ; preds = %92
  br label %94

94:                                               ; preds = %93, %43
  %95 = load ptr, ptr %7, align 8
  %96 = load i64, ptr %6, align 8
  %97 = getelementptr inbounds i8, ptr %95, i64 %96
  store ptr %97, ptr %7, align 8
  %98 = load i32, ptr %5, align 4
  %99 = add i32 %98, -1
  store i32 %99, ptr %5, align 4
  br label %28

100:                                              ; preds = %28
  br label %101

101:                                              ; preds = %100
  ret void
}