; Function Attrs: nofree norecurse nosync nounwind memory(readwrite, inaccessiblemem: none) uwtable
define void @phpdbg_reset_breakpoints() local_unnamed_addr #0 {
  %1 = load i32, ptr getelementptr inbounds (%struct._zend_phpdbg_globals, ptr @phpdbg_globals, i64 0, i32 0, i64 10, i32 4), align 8
  %2 = load i32, ptr getelementptr inbounds (%struct._zend_phpdbg_globals, ptr @phpdbg_globals, i64 0, i32 0, i64 10, i32 1), align 8
  %3 = shl i32 %2, 2
  %4 = and i32 %3, 16
  %5 = xor i32 %4, 16
  %narrow = add nuw nsw i32 %5, 16
  %6 = zext nneg i32 %narrow to i64
  %.not29 = icmp eq i32 %1, 0
  br i1 %.not29, label %._crit_edge, label %.lr.ph32.preheader

.lr.ph32.preheader:                               ; preds = %0
  %7 = load ptr, ptr getelementptr inbounds (%struct._zend_phpdbg_globals, ptr @phpdbg_globals, i64 0, i32 0, i64 10, i32 3), align 8
  br label %.lr.ph32

.lr.ph32:                                         ; preds = %.lr.ph32.preheader, %.loopexit
  %.02131 = phi i32 [ %33, %.loopexit ], [ %1, %.lr.ph32.preheader ]
  %.02330 = phi ptr [ %32, %.loopexit ], [ %7, %.lr.ph32.preheader ]
  %8 = getelementptr inbounds i8, ptr %.02330, i64 8
  %9 = load i8, ptr %8, align 8
  %10 = icmp eq i8 %9, 0
  br i1 %10, label %.loopexit, label %11

11:                                               ; preds = %.lr.ph32
  %12 = load ptr, ptr %.02330, align 8
  %13 = getelementptr inbounds i8, ptr %12, i64 24
  %14 = load i32, ptr %13, align 8
  %15 = getelementptr inbounds i8, ptr %12, i64 8
  %16 = load i32, ptr %15, align 8
  %17 = shl i32 %16, 2
  %18 = and i32 %17, 16
  %19 = xor i32 %18, 16
  %narrow24 = add nuw nsw i32 %19, 16
  %20 = zext nneg i32 %narrow24 to i64
  %.not2526 = icmp eq i32 %14, 0
  br i1 %.not2526, label %.loopexit, label %.lr.ph.preheader

.lr.ph.preheader:                                 ; preds = %11
  %21 = getelementptr inbounds i8, ptr %12, i64 16
  %22 = load ptr, ptr %21, align 8
  br label %.lr.ph

.lr.ph:                                           ; preds = %.lr.ph.preheader, %29
  %.028 = phi ptr [ %30, %29 ], [ %22, %.lr.ph.preheader ]
  %.02227 = phi i32 [ %31, %29 ], [ %14, %.lr.ph.preheader ]
  %23 = getelementptr inbounds i8, ptr %.028, i64 8
  %24 = load i8, ptr %23, align 8
  %25 = icmp eq i8 %24, 0
  br i1 %25, label %29, label %26

26:                                               ; preds = %.lr.ph
  %27 = load ptr, ptr %.028, align 8
  %28 = getelementptr inbounds i8, ptr %27, i64 8
  store i64 0, ptr %28, align 8
  br label %29

29:                                               ; preds = %.lr.ph, %26
  %30 = getelementptr inbounds i8, ptr %.028, i64 %20
  %31 = add i32 %.02227, -1
  %.not25 = icmp eq i32 %31, 0
  br i1 %.not25, label %.loopexit, label %.lr.ph

.loopexit:                                        ; preds = %29, %11, %.lr.ph32
  %32 = getelementptr inbounds i8, ptr %.02330, i64 %6
  %33 = add i32 %.02131, -1
  %.not = icmp eq i32 %33, 0
  br i1 %.not, label %._crit_edge, label %.lr.ph32

._crit_edge:                                      ; preds = %.loopexit, %0
  ret void
}